; Function Attrs: mustprogress nofree norecurse nosync nounwind willreturn memory(argmem: read) uwtable
define hidden noundef zeroext i1 @_ZN11hwf_manager6is_negERK3hwf(ptr noundef nonnull readnone align 8 captures(none) dereferenceable(736) %0, ptr noundef nonnull readonly align 8 captures(none) dereferenceable(8) %1) local_unnamed_addr #10 align 2 {
  %.0.copyload.i.i = load i64, ptr %1, align 8
  %3 = icmp slt i64 %.0.copyload.i.i, 0
  br i1 %3, label %4, label %9

4:                                                ; preds = %2
  %5 = and i64 %.0.copyload.i.i, 9218868437227405312
  %6 = icmp ne i64 %5, 9218868437227405312
  %7 = and i64 %.0.copyload.i.i, 4503599627370495
  %8 = icmp eq i64 %7, 0
  %.not4 = or i1 %6, %8
  br label %9

9:                                                ; preds = %4, %2
  %10 = phi i1 [ false, %2 ], [ %.not4, %4 ]
  ret i1 %10
}